; Function Attrs: nounwind uwtable
define internal noundef i32 @rte_init(i32 %0, ptr readnone captures(none) %1) #0 {
  %3 = tail call i32 @prte_ess_base_std_prolog() #6
  switch i32 %3, label %60 [
    i32 0, label %4
    i32 -43, label %.thread
  ]

4:                                                ; preds = %2
  %5 = load i32, ptr getelementptr inbounds nuw (i8, ptr @prte_ess_base_framework, i64 76), align 4, !tbaa !3
  %or.cond.i = icmp ult i32 %5, 64
  br i1 %or.cond.i, label %6, label %12

6:                                                ; preds = %4
  %7 = zext nneg i32 %5 to i64
  %8 = getelementptr inbounds nuw [0 x %struct.pmix_output_desc_t], ptr @pmix_output_info, i64 0, i64 %7, i32 2
  %9 = load i32, ptr %8, align 4, !tbaa !18
  %10 = icmp sgt i32 %9, 0
  br i1 %10, label %11, label %12

11:                                               ; preds = %6
  tail call void (i32, ptr, ...) @pmix_output(i32 noundef %5, ptr noundef nonnull @.str.6) #6
  br label %12

12:                                               ; preds = %11, %6, %4
  %13 = load ptr, ptr @prte_ess_base_nspace, align 8, !tbaa !21
  %14 = icmp eq ptr %13, null
  br i1 %14, label %15, label %17

15:                                               ; preds = %12
  %16 = tail call ptr @prte_strerror(i32 noundef -13) #6
  tail call void (i32, ptr, ...) @pmix_output(i32 noundef 0, ptr noundef nonnull @.str.1, ptr noundef %16, ptr noundef nonnull @.str.2, i32 noundef 112) #6
  br label %slurm_set_name.exit

17:                                               ; preds = %12
  tail call void @PMIx_Load_nspace(ptr noundef nonnull @prte_process_info, ptr noundef nonnull %13) #6
  %18 = load ptr, ptr @prte_ess_base_vpid, align 8, !tbaa !21
  %19 = icmp eq ptr %18, null
  br i1 %19, label %20, label %22

20:                                               ; preds = %17
  %21 = tail call ptr @prte_strerror(i32 noundef -13) #6
  tail call void (i32, ptr, ...) @pmix_output(i32 noundef 0, ptr noundef nonnull @.str.1, ptr noundef %21, ptr noundef nonnull @.str.2, i32 noundef 119) #6
  br label %slurm_set_name.exit

22:                                               ; preds = %17
  %23 = tail call i64 @strtoul(ptr noundef nonnull captures(none) %18, ptr noundef null, i32 noundef 10) #6
  %24 = trunc i64 %23 to i32
  %25 = tail call ptr @getenv(ptr noundef nonnull @.str.7) #6
  %26 = tail call i64 @strtol(ptr noundef nonnull captures(none) %25, ptr noundef null, i32 noundef 10) #6
  %27 = trunc i64 %26 to i32
  %28 = add i32 %27, %24
  store i32 %28, ptr getelementptr inbounds nuw (i8, ptr @prte_process_info, i64 256), align 8, !tbaa !22
  %29 = load i32, ptr getelementptr inbounds nuw (i8, ptr @prte_ess_base_framework, i64 76), align 4, !tbaa !3
  %or.cond3.i = icmp ult i32 %29, 64
  br i1 %or.cond3.i, label %30, label %37

30:                                               ; preds = %22
  %31 = zext nneg i32 %29 to i64
  %32 = getelementptr inbounds nuw [0 x %struct.pmix_output_desc_t], ptr @pmix_output_info, i64 0, i64 %31, i32 2
  %33 = load i32, ptr %32, align 4, !tbaa !18
  %34 = icmp sgt i32 %33, 0
  br i1 %34, label %35, label %37

35:                                               ; preds = %30
  %36 = tail call ptr @prte_util_print_name_args(ptr noundef nonnull @prte_process_info) #6
  tail call void (i32, ptr, ...) @pmix_output(i32 noundef %29, ptr noundef nonnull @.str.8, ptr noundef %36) #6
  br label %37

37:                                               ; preds = %35, %30, %22
  %38 = load ptr, ptr getelementptr inbounds nuw (i8, ptr @prte_process_info, i64 800), align 8, !tbaa !27
  %.not.i = icmp eq ptr %38, null
  br i1 %.not.i, label %40, label %39

39:                                               ; preds = %37
  tail call void @free(ptr noundef nonnull %38) #6
  br label %40

40:                                               ; preds = %39, %37
  %41 = tail call ptr @getenv(ptr noundef nonnull @.str.9) #6
  %42 = icmp eq ptr %41, null
  br i1 %42, label %43, label %45

43:                                               ; preds = %40
  %44 = tail call ptr @prte_strerror(i32 noundef -13) #6
  tail call void (i32, ptr, ...) @pmix_output(i32 noundef 0, ptr noundef nonnull @.str.1, ptr noundef %44, ptr noundef nonnull @.str.2, i32 noundef 136) #6
  br label %slurm_set_name.exit

45:                                               ; preds = %40
  %46 = tail call noalias ptr @strdup(ptr noundef nonnull %41) #6
  store ptr %46, ptr getelementptr inbounds nuw (i8, ptr @prte_process_info, i64 800), align 8, !tbaa !27
  %47 = load i32, ptr getelementptr inbounds nuw (i8, ptr @prte_ess_base_framework, i64 76), align 4, !tbaa !3
  %or.cond5.i = icmp ult i32 %47, 64
  br i1 %or.cond5.i, label %48, label %56

48:                                               ; preds = %45
  %49 = zext nneg i32 %47 to i64
  %50 = getelementptr inbounds nuw [0 x %struct.pmix_output_desc_t], ptr @pmix_output_info, i64 0, i64 %49, i32 2
  %51 = load i32, ptr %50, align 4, !tbaa !18
  %52 = icmp sgt i32 %51, 0
  br i1 %52, label %53, label %56

53:                                               ; preds = %48
  %54 = icmp eq ptr %46, null
  %55 = select i1 %54, ptr @.str.11, ptr %46
  tail call void (i32, ptr, ...) @pmix_output(i32 noundef %47, ptr noundef nonnull @.str.10, ptr noundef nonnull %55) #6
  br label %56

56:                                               ; preds = %53, %48, %45
  %57 = load i32, ptr @prte_ess_base_num_procs, align 4, !tbaa !28
  store i32 %57, ptr getelementptr inbounds nuw (i8, ptr @prte_process_info, i64 792), align 8, !tbaa !29
  br label %slurm_set_name.exit

slurm_set_name.exit:                              ; preds = %15, %20, %43, %56
  %58 = tail call i32 @prte_ess_base_prted_setup() #6
  switch i32 %58, label %.thread17 [
    i32 0, label %.thread
    i32 -43, label %.thread
  ]

.thread17:                                        ; preds = %slurm_set_name.exit
  %59 = tail call ptr @prte_strerror(i32 noundef %58) #6
  tail call void (i32, ptr, ...) @pmix_output(i32 noundef 0, ptr noundef nonnull @.str.1, ptr noundef %59, ptr noundef nonnull @.str.2, i32 noundef 77) #6
  br label %60

60:                                               ; preds = %2, %.thread17
  %.022 = phi ptr [ @.str.3, %.thread17 ], [ @.str, %2 ]
  %.0721 = phi i32 [ %58, %.thread17 ], [ %3, %2 ]
  %61 = load i8, ptr @prte_report_silent_errors, align 1, !tbaa !30, !range !31, !noundef !32
  %62 = trunc nuw i8 %61 to i1
  br i1 %62, label %.thread, label %63

63:                                               ; preds = %60
  %64 = tail call ptr @prte_strerror(i32 noundef %.0721) #6
  %65 = tail call i32 (ptr, ptr, i32, ...) @pmix_show_help(ptr noundef nonnull @.str.4, ptr noundef nonnull @.str.5, i32 noundef 1, ptr noundef nonnull %.022, ptr noundef %64, i32 noundef %.0721) #6
  br label %.thread

.thread:                                          ; preds = %slurm_set_name.exit, %2, %60, %63, %slurm_set_name.exit
  %.08 = phi i32 [ %58, %slurm_set_name.exit ], [ %.0721, %63 ], [ %.0721, %60 ], [ %3, %2 ], [ %58, %slurm_set_name.exit ]
  ret i32 %.08
}